target datalayout = "e-m:e-p270:32:32-p271:32:32-p272:64:64-i64:64-i128:128-f80:128-n8:16:32:64-S128"
target triple = "x86_64-pc-linux-gnu"

@.str = private unnamed_addr constant [32 x i8] c"../openssl/crypto/cmp/cmp_vfy.c\00", align 1
@__func__.check_transactionID_or_nonce = private unnamed_addr constant [29 x i8] c"check_transactionID_or_nonce\00", align 1
@.str.62 = private unnamed_addr constant [27 x i8] c"expected = %s, actual = %s\00", align 1
@.str.63 = private unnamed_addr constant [2 x i8] c"?\00", align 1
@.str.64 = private unnamed_addr constant [7 x i8] c"(none)\00", align 1

; Function Attrs: nounwind uwtable
define internal i32 @check_transactionID_or_nonce(ptr noundef %0, ptr noundef %1, i32 noundef %2) #0 {
  %4 = alloca i32, align 4
  %5 = alloca ptr, align 8
  %6 = alloca ptr, align 8
  %7 = alloca i32, align 4
  %8 = alloca ptr, align 8
  %9 = alloca ptr, align 8
  store ptr %0, ptr %5, align 8, !tbaa !58
  store ptr %1, ptr %6, align 8, !tbaa !58
  store i32 %2, ptr %7, align 4, !tbaa !12
  %10 = load ptr, ptr %5, align 8, !tbaa !58
  %11 = icmp ne ptr %10, null
  br i1 %11, label %12, label %54

12:                                               ; preds = %3
  %13 = load ptr, ptr %6, align 8, !tbaa !58
  %14 = icmp eq ptr %13, null
  br i1 %14, label %20, label %15

15:                                               ; preds = %12
  %16 = load ptr, ptr %5, align 8, !tbaa !58
  %17 = load ptr, ptr %6, align 8, !tbaa !58
  %18 = call i32 @ASN1_OCTET_STRING_cmp(ptr noundef %16, ptr noundef %17)
  %19 = icmp ne i32 %18, 0
  br i1 %19, label %20, label %54

20:                                               ; preds = %15, %12
  call void @llvm.lifetime.start.p0(i64 8, ptr %8) #5
  call void @llvm.lifetime.start.p0(i64 8, ptr %9) #5
  %21 = load ptr, ptr %5, align 8, !tbaa !58
  %22 = call ptr @i2s_ASN1_OCTET_STRING(ptr noundef null, ptr noundef %21)
  store ptr %22, ptr %8, align 8, !tbaa !64
  %23 = load ptr, ptr %6, align 8, !tbaa !58
  %24 = icmp eq ptr %23, null
  br i1 %24, label %25, label %26

25:                                               ; preds = %20
  br label %29

26:                                               ; preds = %20
  %27 = load ptr, ptr %6, align 8, !tbaa !58
  %28 = call ptr @i2s_ASN1_OCTET_STRING(ptr noundef null, ptr noundef %27)
  br label %29

29:                                               ; preds = %26, %25
  %30 = phi ptr [ null, %25 ], [ %28, %26 ]
  store ptr %30, ptr %9, align 8, !tbaa !64
  call void @ERR_new()
  call void @ERR_set_debug(ptr noundef @.str, i32 noundef 670, ptr noundef @__func__.check_transactionID_or_nonce)
  %31 = load i32, ptr %7, align 4, !tbaa !12
  %32 = load ptr, ptr %8, align 8, !tbaa !64
  %33 = icmp eq ptr %32, null
  br i1 %33, label %34, label %35

34:                                               ; preds = %29
  br label %37

35:                                               ; preds = %29
  %36 = load ptr, ptr %8, align 8, !tbaa !64
  br label %37

37:                                               ; preds = %35, %34
  %38 = phi ptr [ @.str.63, %34 ], [ %36, %35 ]
  %39 = load ptr, ptr %6, align 8, !tbaa !58
  %40 = icmp eq ptr %39, null
  br i1 %40, label %41, label %42

41:                                               ; preds = %37
  br label %50

42:                                               ; preds = %37
  %43 = load ptr, ptr %9, align 8, !tbaa !64
  %44 = icmp eq ptr %43, null
  br i1 %44, label %45, label %46

45:                                               ; preds = %42
  br label %48

46:                                               ; preds = %42
  %47 = load ptr, ptr %9, align 8, !tbaa !64
  br label %48

48:                                               ; preds = %46, %45
  %49 = phi ptr [ @.str.63, %45 ], [ %47, %46 ]
  br label %50

50:                                               ; preds = %48, %41
  %51 = phi ptr [ @.str.64, %41 ], [ %49, %48 ]
  call void (i32, i32, ptr, ...) @ERR_set_error(i32 noundef 58, i32 noundef %31, ptr noundef @.str.62, ptr noundef %38, ptr noundef %51)
  %52 = load ptr, ptr %8, align 8, !tbaa !64
  call void @CRYPTO_free(ptr noundef %52, ptr noundef @.str, i32 noundef 675)
  %53 = load ptr, ptr %9, align 8, !tbaa !64
  call void @CRYPTO_free(ptr noundef %53, ptr noundef @.str, i32 noundef 676)
  store i32 0, ptr %4, align 4
  call void @llvm.lifetime.end.p0(i64 8, ptr %9) #5
  call void @llvm.lifetime.end.p0(i64 8, ptr %8) #5
  br label %55

54:                                               ; preds = %15, %3
  store i32 1, ptr %4, align 4
  br label %55

55:                                               ; preds = %54, %50
  %56 = load i32, ptr %4, align 4
  ret i32 %56
}