; Function Attrs: nounwind uwtable
define internal fastcc range(i32 0, 2) i32 @check_transactionID_or_nonce(ptr noundef %0, ptr noundef %1, i32 noundef range(i32 148, 153) %2) unnamed_addr #0 {
  %.not = icmp eq ptr %0, null
  br i1 %.not, label %20, label %4

4:                                                ; preds = %3
  %5 = icmp eq ptr %1, null
  br i1 %5, label %.thread, label %7

.thread:                                          ; preds = %4
  %6 = tail call ptr @i2s_ASN1_OCTET_STRING(ptr noundef null, ptr noundef nonnull %0) #3
  br label %12

7:                                                ; preds = %4
  %8 = tail call i32 @ASN1_OCTET_STRING_cmp(ptr noundef nonnull %0, ptr noundef nonnull %1) #3
  %.not17 = icmp eq i32 %8, 0
  br i1 %.not17, label %20, label %9

9:                                                ; preds = %7
  %10 = tail call ptr @i2s_ASN1_OCTET_STRING(ptr noundef null, ptr noundef nonnull %0) #3
  %11 = tail call ptr @i2s_ASN1_OCTET_STRING(ptr noundef null, ptr noundef nonnull %1) #3
  br label %12

12:                                               ; preds = %.thread, %9
  %13 = phi ptr [ %10, %9 ], [ %6, %.thread ]
  %14 = phi ptr [ %11, %9 ], [ null, %.thread ]
  tail call void @ERR_new() #3
  tail call void @ERR_set_debug(ptr noundef nonnull @.str, i32 noundef 670, ptr noundef nonnull @__func__.check_transactionID_or_nonce) #3
  %15 = icmp eq ptr %13, null
  %16 = select i1 %15, ptr @.str.63, ptr %13
  %17 = icmp eq ptr %14, null
  %18 = select i1 %17, ptr @.str.63, ptr %14
  %19 = select i1 %5, ptr @.str.64, ptr %18
  tail call void (i32, i32, ptr, ...) @ERR_set_error(i32 noundef 58, i32 noundef %2, ptr noundef nonnull @.str.62, ptr noundef nonnull %16, ptr noundef nonnull %19) #3
  tail call void @CRYPTO_free(ptr noundef %13, ptr noundef nonnull @.str, i32 noundef 675) #3
  tail call void @CRYPTO_free(ptr noundef %14, ptr noundef nonnull @.str, i32 noundef 676) #3
  br label %20

20:                                               ; preds = %3, %7, %12
  %.0 = phi i32 [ 0, %12 ], [ 1, %7 ], [ 1, %3 ]
  ret i32 %.0
}